ccopy_reg
_reconstructor
p0
(cpongnn.nn
NeuralNet
p1
c__builtin__
object
p2
Ntp3
Rp4
(dp5
S'layers'
p6
(lp7
(lp8
g0
(cpongnn.nn
InputNeuron
p9
g2
Ntp10
Rp11
(dp12
S'inputs'
p13
NsS'weights'
p14
NsS'value'
p15
F67.5
sbag0
(g9
g2
Ntp16
Rp17
(dp18
g13
Nsg14
Nsg15
I28
sbag0
(g9
g2
Ntp19
Rp20
(dp21
g13
Nsg14
Nsg15
I1
sbaa(lp22
g0
(cpongnn.nn
Neuron
p23
g2
Ntp24
Rp25
(dp26
g13
g8
sg14
(lp27
F-0.21667547356118266
aF0.7256203389258784
aF-0.13275078887320446
aF-1.0194767837152294
asbag0
(g23
g2
Ntp28
Rp29
(dp30
g13
g8
sg14
(lp31
F0.6197822920016129
aF0.504445009071985
aF0.011044557374513486
aF-0.9665467501511349
asbag0
(g23
g2
Ntp32
Rp33
(dp34
g13
g8
sg14
(lp35
F-0.40445069039527604
aF0.6234460622461135
aF0.9138972084370762
aF0.31703186203898803
asbag0
(g23
g2
Ntp36
Rp37
(dp38
g13
g8
sg14
(lp39
F-0.583559628413908
aF0.2464530434190788
aF-0.11676616053216127
aF0.7050842998768121
asbag0
(g23
g2
Ntp40
Rp41
(dp42
g13
g8
sg14
(lp43
F-0.16861328375862494
aF-0.13724333136640965
aF-0.24543119679339487
aF0.31065970819007305
asbaa(lp44
g0
(g23
g2
Ntp45
Rp46
(dp47
g13
g22
sg14
(lp48
F0.8898611378683805
aF-0.9250974579435665
aF0.6563298423818971
aF0.7060286694848152
aF-0.9632242637995887
aF-0.47314038291366844
asbaasb.