ccopy_reg
_reconstructor
p0
(cpongnn.nn
NeuralNet
p1
c__builtin__
object
p2
Ntp3
Rp4
(dp5
S'layers'
p6
(lp7
(lp8
g0
(cpongnn.nn
InputNeuron
p9
g2
Ntp10
Rp11
(dp12
S'inputs'
p13
NsS'weights'
p14
NsS'value'
p15
F106.5
sbag0
(g9
g2
Ntp16
Rp17
(dp18
g13
Nsg14
Nsg15
F2.8
sbag0
(g9
g2
Ntp19
Rp20
(dp21
g13
Nsg14
Nsg15
I1
sbaa(lp22
g0
(cpongnn.nn
Neuron
p23
g2
Ntp24
Rp25
(dp26
g13
g8
sg14
(lp27
F-0.28857245148073374
aF-0.6381178160497787
aF1.0577532508089715
aF-0.3836563648680764
asbag0
(g23
g2
Ntp28
Rp29
(dp30
g13
g8
sg14
(lp31
F-1.1367968685446277
aF0.841058165755
aF-1.447722000561108
aF2.5904235058688094
asbag0
(g23
g2
Ntp32
Rp33
(dp34
g13
g8
sg14
(lp35
F-0.016280980954946678
aF5.036882985435991
aF-0.1849095983589608
aF-1.1311475887527553
asbag0
(g23
g2
Ntp36
Rp37
(dp38
g13
g8
sg14
(lp39
F-0.05335153924519598
aF-0.15383903577211067
aF3.0896614791844828
aF1.7536953521086873
asbaa(lp40
g0
(g23
g2
Ntp41
Rp42
(dp43
g13
g22
sg14
(lp44
F-0.9571268169641953
aF-0.5847180526550178
aF-1.534745719280036
aF0.6391911957207057
aF0.6100886238395413
asbaasb.