ccopy_reg
_reconstructor
p0
(cpongnn.nn
NeuralNet
p1
c__builtin__
object
p2
Ntp3
Rp4
(dp5
S'layers'
p6
(lp7
(lp8
g0
(cpongnn.nn
InputNeuron
p9
g2
Ntp10
Rp11
(dp12
S'inputs'
p13
NsS'weights'
p14
NsS'value'
p15
F174.0
sbag0
(g9
g2
Ntp16
Rp17
(dp18
g13
Nsg14
Nsg15
F0.7
sbag0
(g9
g2
Ntp19
Rp20
(dp21
g13
Nsg14
Nsg15
I1
sbaa(lp22
g0
(cpongnn.nn
Neuron
p23
g2
Ntp24
Rp25
(dp26
g13
g8
sg14
(lp27
F0.029607531618468075
aF-0.33897847161065364
aF0.7539949832584087
aF0.9861850771250631
asbag0
(g23
g2
Ntp28
Rp29
(dp30
g13
g8
sg14
(lp31
F-0.35086728443202286
aF1.2982151469093028
aF-1.2336576069665355
aF-0.5304125106739479
asbag0
(g23
g2
Ntp32
Rp33
(dp34
g13
g8
sg14
(lp35
F-0.5032377719313315
aF1.1086897317229416
aF-1.7693001802935342
aF-0.4844757738969543
asbag0
(g23
g2
Ntp36
Rp37
(dp38
g13
g8
sg14
(lp39
F0.27266303462175223
aF0.5427531494490878
aF-1.029083016187077
aF-0.1742251728349431
asbaa(lp40
g0
(g23
g2
Ntp41
Rp42
(dp43
g13
g22
sg14
(lp44
F-0.2774560393703325
aF-0.9955419182853662
aF-0.8723174591635405
aF-0.2295850258186214
aF-0.7016825128590369
asbaasb.